; Function Attrs: mustprogress uwtable
define dso_local void @_ZN3ozz2io6ExternINS_4math7RectIntEE4SaveERNS0_8OArchiveEPKS3_m(ptr noundef nonnull readonly align 8 captures(none) dereferenceable(9) %0, ptr noundef %1, i64 noundef %2) local_unnamed_addr #0 align 2 {
  %4 = alloca i32, align 4
  %5 = shl i64 %2, 2
  %6 = getelementptr inbounds nuw i8, ptr %0, i64 8
  %7 = load i8, ptr %6, align 8, !tbaa !4, !range !11, !noundef !12
  %8 = trunc nuw i8 %7 to i1
  br i1 %8, label %.preheader.i.i, label %19

.preheader.i.i:                                   ; preds = %3
  %.not8.i.i = icmp eq i64 %5, 0
  br i1 %.not8.i.i, label %_ZN3ozz2io8OArchivelsINS0_8internal5ArrayIKiEEEEvRKT_.exit, label %.lr.ph.i.i

.lr.ph.i.i:                                       ; preds = %.preheader.i.i, %.lr.ph.i.i
  %.0.i5.i.i = phi i64 [ %18, %.lr.ph.i.i ], [ 0, %.preheader.i.i ]
  %9 = getelementptr inbounds nuw i32, ptr %1, i64 %.0.i5.i.i
  %10 = load i32, ptr %9, align 4, !tbaa !25
  call void @llvm.lifetime.start.p0(i64 4, ptr nonnull %4) #3
  %11 = load i8, ptr %6, align 8, !tbaa !4, !range !11, !noundef !12
  %12 = trunc nuw i8 %11 to i1
  %.sroa.0.0.insert.insert.i.i.i = call i32 @llvm.bswap.i32(i32 %10)
  %spec.select.i.i.i = select i1 %12, i32 %.sroa.0.0.insert.insert.i.i.i, i32 %10
  store i32 %spec.select.i.i.i, ptr %4, align 4, !tbaa !25
  %13 = load ptr, ptr %0, align 8, !tbaa !15
  %14 = load ptr, ptr %13, align 8, !tbaa !16
  %15 = getelementptr inbounds nuw i8, ptr %14, i64 16
  %16 = load ptr, ptr %15, align 8
  %17 = call noundef i64 %16(ptr noundef nonnull align 8 dereferenceable(8) %13, ptr noundef nonnull %4, i64 noundef 4)
  call void @llvm.lifetime.end.p0(i64 4, ptr nonnull %4) #3
  %18 = add nuw i64 %.0.i5.i.i, 1
  %exitcond.not = icmp eq i64 %18, %5
  br i1 %exitcond.not, label %_ZN3ozz2io8OArchivelsINS0_8internal5ArrayIKiEEEEvRKT_.exit, label %.lr.ph.i.i, !llvm.loop !27

19:                                               ; preds = %3
  %20 = shl i64 %2, 4
  %21 = load ptr, ptr %0, align 8, !tbaa !15
  %22 = load ptr, ptr %21, align 8, !tbaa !16
  %23 = getelementptr inbounds nuw i8, ptr %22, i64 16
  %24 = load ptr, ptr %23, align 8
  %25 = tail call noundef i64 %24(ptr noundef nonnull align 8 dereferenceable(8) %21, ptr noundef %1, i64 noundef %20)
  br label %_ZN3ozz2io8OArchivelsINS0_8internal5ArrayIKiEEEEvRKT_.exit

_ZN3ozz2io8OArchivelsINS0_8internal5ArrayIKiEEEEvRKT_.exit: ; preds = %.lr.ph.i.i, %.preheader.i.i, %19
  ret void
}